target datalayout = "e-m:e-p270:32:32-p271:32:32-p272:64:64-i64:64-i128:128-f80:128-n8:16:32:64-S128"
target triple = "x86_64-pc-linux-gnu"

%class.NativeCallStack = type { [4 x ptr] }

@.str = private unnamed_addr constant [40 x i8] c"src/hotspot/share/memory/allocation.cpp\00", align 1
@.str.4 = private unnamed_addr constant [13 x i8] c"AllocateHeap\00", align 1
@_ZN10MemTracker15_tracking_levelE = external global i32, align 4

; Function Attrs: mustprogress nounwind uwtable
define hidden noundef ptr @_Z12AllocateHeapm8MEMFLAGSRK15NativeCallStackN17AllocFailStrategy13AllocFailEnumE(i64 noundef %0, i8 noundef zeroext %1, ptr noundef nonnull align 8 dereferenceable(32) %2, i32 noundef %3) #1 {
  %5 = alloca i64, align 8
  %6 = alloca i8, align 1
  %7 = alloca ptr, align 8
  %8 = alloca i32, align 4
  %9 = alloca ptr, align 8
  store i64 %0, ptr %5, align 8
  store i8 %1, ptr %6, align 1
  store ptr %2, ptr %7, align 8
  store i32 %3, ptr %8, align 4
  %10 = load i64, ptr %5, align 8
  %11 = load i8, ptr %6, align 1
  %12 = load ptr, ptr %7, align 8
  %13 = call noundef ptr @_ZN2os6mallocEm8MEMFLAGSRK15NativeCallStack(i64 noundef %10, i8 noundef zeroext %11, ptr noundef nonnull align 8 dereferenceable(32) %12)
  store ptr %13, ptr %9, align 8
  %14 = load ptr, ptr %9, align 8
  %15 = icmp eq ptr %14, null
  br i1 %15, label %16, label %23

16:                                               ; preds = %4
  %17 = load i32, ptr %8, align 4
  %18 = icmp eq i32 %17, 0
  br i1 %18, label %19, label %23

19:                                               ; preds = %16
  br label %20

20:                                               ; preds = %19
  %21 = load i64, ptr %5, align 8
  call void (ptr, i32, i64, i32, ptr, ...) @_Z23report_vm_out_of_memoryPKcim11VMErrorTypeS0_z(ptr noundef @.str, i32 noundef 44, i64 noundef %21, i32 noundef -536870911, ptr noundef @.str.4) #4
  unreachable

22:                                               ; No predecessors!
  br label %23

23:                                               ; preds = %22, %16, %4
  %24 = load ptr, ptr %9, align 8
  ret ptr %24
}

; Function Attrs: mustprogress nounwind uwtable
define linkonce_odr hidden void @_ZN15NativeCallStackC2ENS_10FakeMarkerE(ptr noundef nonnull align 8 dereferenceable(32) %0, i32 noundef %1) unnamed_addr #1 comdat align 2 {
  %3 = alloca ptr, align 8
  %4 = alloca i32, align 4
  store ptr %0, ptr %3, align 8
  store i32 %1, ptr %4, align 4
  ret void
}

; Function Attrs: mustprogress nounwind uwtable
define linkonce_odr hidden noundef i32 @_ZN10MemTracker14tracking_levelEv() #1 comdat align 2 {
  %1 = load i32, ptr @_ZN10MemTracker15_tracking_levelE, align 4
  ret i32 %1
}

; Function Attrs: mustprogress nounwind uwtable
define hidden noundef ptr @_Z12AllocateHeapm8MEMFLAGSN17AllocFailStrategy13AllocFailEnumE(i64 noundef %0, i8 noundef zeroext %1, i32 noundef %2) #1 {
  %4 = alloca i64, align 8
  %5 = alloca i8, align 1
  %6 = alloca i32, align 4
  %7 = alloca %class.NativeCallStack, align 8
  store i64 %0, ptr %4, align 8
  store i8 %1, ptr %5, align 1
  store i32 %2, ptr %6, align 4
  %8 = load i64, ptr %4, align 8
  %9 = load i8, ptr %5, align 1
  %10 = call noundef i32 @_ZN10MemTracker14tracking_levelEv()
  %11 = icmp eq i32 %10, 3
  br i1 %11, label %12, label %13

12:                                               ; preds = %3
  call void @_ZN15NativeCallStackC1Ei(ptr noundef nonnull align 8 dereferenceable(32) %7, i32 noundef 1)
  br label %14

13:                                               ; preds = %3
  call void @_ZN15NativeCallStackC2ENS_10FakeMarkerE(ptr noundef nonnull align 8 dereferenceable(32) %7, i32 noundef 0)
  br label %14

14:                                               ; preds = %13, %12
  %15 = load i32, ptr %6, align 4
  %16 = call noundef ptr @_Z12AllocateHeapm8MEMFLAGSRK15NativeCallStackN17AllocFailStrategy13AllocFailEnumE(i64 noundef %8, i8 noundef zeroext %9, ptr noundef nonnull align 8 dereferenceable(32) %7, i32 noundef %15)
  ret ptr %16
}