; Function Attrs: mustprogress nounwind uwtable
define hidden noundef ptr @_Z12AllocateHeapm8MEMFLAGSN17AllocFailStrategy13AllocFailEnumE(i64 noundef %0, i8 noundef zeroext %1, i32 noundef %2) local_unnamed_addr #0 {
  %4 = alloca %class.NativeCallStack, align 8
  %5 = load i32, ptr @_ZN10MemTracker15_tracking_levelE, align 4
  %6 = icmp eq i32 %5, 3
  br i1 %6, label %7, label %8

7:                                                ; preds = %3
  call void @_ZN15NativeCallStackC1Ei(ptr noundef nonnull align 8 dereferenceable(32) %4, i32 noundef 1) #3
  br label %8

8:                                                ; preds = %3, %7
  %9 = call noundef ptr @_ZN2os6mallocEm8MEMFLAGSRK15NativeCallStack(i64 noundef %0, i8 noundef zeroext %1, ptr noundef nonnull align 8 dereferenceable(32) %4) #3
  %10 = icmp eq ptr %9, null
  %11 = icmp eq i32 %2, 0
  %or.cond.i = and i1 %11, %10
  br i1 %or.cond.i, label %12, label %_Z12AllocateHeapm8MEMFLAGSRK15NativeCallStackN17AllocFailStrategy13AllocFailEnumE.exit

12:                                               ; preds = %8
  call void (ptr, i32, i64, i32, ptr, ...) @_Z23report_vm_out_of_memoryPKcim11VMErrorTypeS0_z(ptr noundef nonnull @.str, i32 noundef 44, i64 noundef %0, i32 noundef -536870911, ptr noundef nonnull @.str.4) #4
  unreachable

_Z12AllocateHeapm8MEMFLAGSRK15NativeCallStackN17AllocFailStrategy13AllocFailEnumE.exit: ; preds = %8
  ret ptr %9
}